target datalayout = "e-m:e-p270:32:32-p271:32:32-p272:64:64-i64:64-i128:128-f80:128-n8:16:32:64-S128"
target triple = "x86_64-pc-linux-gnu"

%struct._xmlNode = type { ptr, i32, ptr, ptr, ptr, ptr, ptr, ptr, ptr, ptr, ptr, ptr, ptr, ptr, i16, i16 }
%struct._zval_struct = type { %union._zend_value, %union.anon, %union.anon.2 }
%union._zend_value = type { i64 }
%union.anon = type { i32 }
%union.anon.2 = type { i32 }
%struct._dom_object = type { ptr, ptr, ptr, %struct._zend_object }
%struct._zend_object = type { %struct._zend_refcounted_h, i32, ptr, ptr, ptr, [1 x %struct._zval_struct] }
%struct._zend_refcounted_h = type { i32, %union.anon.3 }
%union.anon.3 = type { i32 }
%struct._zend_string = type { %struct._zend_refcounted_h, i64, i64, [1 x i8] }

; Function Attrs: nounwind uwtable
define internal ptr @php_dom_obj_from_obj(ptr noundef %0) #0 {
  %2 = alloca ptr, align 8
  store ptr %0, ptr %2, align 8
  %3 = load ptr, ptr %2, align 8
  %4 = getelementptr inbounds i8, ptr %3, i64 -24
  ret ptr %4
}

; Function Attrs: nounwind uwtable
define internal ptr @dom_doc_from_context_node(ptr noundef %0) #0 {
  %2 = alloca ptr, align 8
  %3 = alloca ptr, align 8
  store ptr %0, ptr %3, align 8
  %4 = load ptr, ptr %3, align 8
  %5 = getelementptr inbounds %struct._xmlNode, ptr %4, i32 0, i32 1
  %6 = load i32, ptr %5, align 8
  %7 = icmp eq i32 %6, 9
  br i1 %7, label %13, label %8

8:                                                ; preds = %1
  %9 = load ptr, ptr %3, align 8
  %10 = getelementptr inbounds %struct._xmlNode, ptr %9, i32 0, i32 1
  %11 = load i32, ptr %10, align 8
  %12 = icmp eq i32 %11, 13
  br i1 %12, label %13, label %15

13:                                               ; preds = %8, %1
  %14 = load ptr, ptr %3, align 8
  store ptr %14, ptr %2, align 8
  br label %19

15:                                               ; preds = %8
  %16 = load ptr, ptr %3, align 8
  %17 = getelementptr inbounds %struct._xmlNode, ptr %16, i32 0, i32 8
  %18 = load ptr, ptr %17, align 8
  store ptr %18, ptr %2, align 8
  br label %19

19:                                               ; preds = %15, %13
  %20 = load ptr, ptr %2, align 8
  ret ptr %20
}

; Function Attrs: nounwind uwtable
define hidden ptr @dom_zvals_to_fragment(ptr noundef %0, ptr noundef %1, ptr noundef %2, i32 noundef %3) #0 {
  %5 = alloca ptr, align 8
  %6 = alloca ptr, align 8
  %7 = alloca ptr, align 8
  %8 = alloca ptr, align 8
  %9 = alloca ptr, align 8
  %10 = alloca i32, align 4
  %11 = alloca ptr, align 8
  %12 = alloca ptr, align 8
  %13 = alloca ptr, align 8
  %14 = alloca ptr, align 8
  %15 = alloca i32, align 4
  %16 = alloca i8, align 1
  %17 = alloca ptr, align 8
  store ptr %0, ptr %7, align 8
  store ptr %1, ptr %8, align 8
  store ptr %2, ptr %9, align 8
  store i32 %3, ptr %10, align 4
  %18 = load ptr, ptr %8, align 8
  %19 = call ptr @dom_doc_from_context_node(ptr noundef %18)
  store ptr %19, ptr %11, align 8
  %20 = load ptr, ptr %11, align 8
  %21 = call ptr @xmlNewDocFragment(ptr noundef %20)
  store ptr %21, ptr %12, align 8
  %22 = load ptr, ptr %12, align 8
  %23 = icmp ne ptr %22, null
  br i1 %23, label %25, label %24

24:                                               ; preds = %4
  store ptr null, ptr %6, align 8
  br label %150

25:                                               ; preds = %4
  store i32 0, ptr %15, align 4
  br label %26

26:                                               ; preds = %143, %25
  %27 = load i32, ptr %15, align 4
  %28 = load i32, ptr %10, align 4
  %29 = icmp ult i32 %27, %28
  br i1 %29, label %30, label %146

30:                                               ; preds = %26
  %31 = load ptr, ptr %9, align 8
  %32 = load i32, ptr %15, align 4
  %33 = zext i32 %32 to i64
  %34 = getelementptr inbounds %struct._zval_struct, ptr %31, i64 %33
  store ptr %34, ptr %5, align 8
  %35 = load ptr, ptr %5, align 8
  %36 = getelementptr inbounds %struct._zval_struct, ptr %35, i32 0, i32 1
  %37 = load i8, ptr %36, align 8
  %38 = zext i8 %37 to i32
  %39 = icmp eq i32 %38, 8
  br i1 %39, label %40, label %124

40:                                               ; preds = %30
  %41 = load ptr, ptr %9, align 8
  %42 = load i32, ptr %15, align 4
  %43 = zext i32 %42 to i64
  %44 = getelementptr inbounds %struct._zval_struct, ptr %41, i64 %43
  %45 = getelementptr inbounds %struct._zval_struct, ptr %44, i32 0, i32 0
  %46 = load ptr, ptr %45, align 8
  %47 = call ptr @php_dom_obj_from_obj(ptr noundef %46)
  store ptr %47, ptr %14, align 8
  %48 = load ptr, ptr %14, align 8
  %49 = call ptr @dom_object_get_node(ptr noundef %48)
  store ptr %49, ptr %13, align 8
  %50 = load ptr, ptr %13, align 8
  %51 = getelementptr inbounds %struct._xmlNode, ptr %50, i32 0, i32 5
  %52 = load ptr, ptr %51, align 8
  %53 = icmp ne ptr %52, null
  br i1 %53, label %54, label %56

54:                                               ; preds = %40
  %55 = load ptr, ptr %13, align 8
  call void @xmlUnlinkNode(ptr noundef %55)
  br label %56

56:                                               ; preds = %54, %40
  %57 = load ptr, ptr %7, align 8
  %58 = load ptr, ptr %14, align 8
  %59 = getelementptr inbounds %struct._dom_object, ptr %58, i32 0, i32 1
  store ptr %57, ptr %59, align 8
  %60 = load ptr, ptr %13, align 8
  %61 = load ptr, ptr %11, align 8
  call void @xmlSetTreeDoc(ptr noundef %60, ptr noundef %61)
  %62 = load ptr, ptr %13, align 8
  %63 = getelementptr inbounds %struct._xmlNode, ptr %62, i32 0, i32 1
  %64 = load i32, ptr %63, align 8
  %65 = icmp eq i32 %64, 3
  br i1 %65, label %66, label %78

66:                                               ; preds = %56
  %67 = load ptr, ptr %12, align 8
  %68 = getelementptr inbounds %struct._xmlNode, ptr %67, i32 0, i32 4
  %69 = load ptr, ptr %68, align 8
  %70 = icmp ne ptr %69, null
  br i1 %70, label %71, label %78

71:                                               ; preds = %66
  %72 = load ptr, ptr %12, align 8
  %73 = getelementptr inbounds %struct._xmlNode, ptr %72, i32 0, i32 4
  %74 = load ptr, ptr %73, align 8
  %75 = getelementptr inbounds %struct._xmlNode, ptr %74, i32 0, i32 1
  %76 = load i32, ptr %75, align 8
  %77 = icmp eq i32 %76, 3
  br label %78

78:                                               ; preds = %71, %66, %56
  %79 = phi i1 [ false, %66 ], [ false, %56 ], [ %77, %71 ]
  %80 = zext i1 %79 to i8
  store i8 %80, ptr %16, align 1
  %81 = load i8, ptr %16, align 1
  %82 = trunc i8 %81 to i1
  br i1 %82, label %83, label %86

83:                                               ; preds = %78
  %84 = load ptr, ptr %13, align 8
  %85 = call ptr @xmlCopyNode(ptr noundef %84, i32 noundef 1)
  store ptr %85, ptr %13, align 8
  br label %86

86:                                               ; preds = %83, %78
  %87 = load ptr, ptr %13, align 8
  %88 = getelementptr inbounds %struct._xmlNode, ptr %87, i32 0, i32 1
  %89 = load i32, ptr %88, align 8
  %90 = icmp eq i32 %89, 11
  br i1 %90, label %91, label %111

91:                                               ; preds = %86
  %92 = load ptr, ptr %13, align 8
  %93 = getelementptr inbounds %struct._xmlNode, ptr %92, i32 0, i32 3
  %94 = load ptr, ptr %93, align 8
  store ptr %94, ptr %13, align 8
  br label %95

95:                                               ; preds = %108, %91
  %96 = load ptr, ptr %13, align 8
  %97 = icmp ne ptr %96, null
  br i1 %97, label %98, label %110

98:                                               ; preds = %95
  %99 = load ptr, ptr %13, align 8
  %100 = getelementptr inbounds %struct._xmlNode, ptr %99, i32 0, i32 6
  %101 = load ptr, ptr %100, align 8
  store ptr %101, ptr %17, align 8
  %102 = load ptr, ptr %13, align 8
  call void @xmlUnlinkNode(ptr noundef %102)
  %103 = load ptr, ptr %12, align 8
  %104 = load ptr, ptr %13, align 8
  %105 = call ptr @xmlAddChild(ptr noundef %103, ptr noundef %104)
  %106 = icmp ne ptr %105, null
  br i1 %106, label %108, label %107

107:                                              ; preds = %98
  br label %148

108:                                              ; preds = %98
  %109 = load ptr, ptr %17, align 8
  store ptr %109, ptr %13, align 8
  br label %95

110:                                              ; preds = %95
  br label %123

111:                                              ; preds = %86
  %112 = load ptr, ptr %12, align 8
  %113 = load ptr, ptr %13, align 8
  %114 = call ptr @xmlAddChild(ptr noundef %112, ptr noundef %113)
  %115 = icmp ne ptr %114, null
  br i1 %115, label %122, label %116

116:                                              ; preds = %111
  %117 = load i8, ptr %16, align 1
  %118 = trunc i8 %117 to i1
  br i1 %118, label %119, label %121

119:                                              ; preds = %116
  %120 = load ptr, ptr %13, align 8
  call void @xmlFreeNode(ptr noundef %120)
  br label %121

121:                                              ; preds = %119, %116
  br label %148

122:                                              ; preds = %111
  br label %123

123:                                              ; preds = %122, %110
  br label %142

124:                                              ; preds = %30
  %125 = load ptr, ptr %11, align 8
  %126 = load ptr, ptr %9, align 8
  %127 = load i32, ptr %15, align 4
  %128 = zext i32 %127 to i64
  %129 = getelementptr inbounds %struct._zval_struct, ptr %126, i64 %128
  %130 = getelementptr inbounds %struct._zval_struct, ptr %129, i32 0, i32 0
  %131 = load ptr, ptr %130, align 8
  %132 = getelementptr inbounds %struct._zend_string, ptr %131, i32 0, i32 3
  %133 = getelementptr inbounds [1 x i8], ptr %132, i64 0, i64 0
  %134 = call ptr @xmlNewDocText(ptr noundef %125, ptr noundef %133)
  store ptr %134, ptr %13, align 8
  %135 = load ptr, ptr %12, align 8
  %136 = load ptr, ptr %13, align 8
  %137 = call ptr @xmlAddChild(ptr noundef %135, ptr noundef %136)
  %138 = icmp ne ptr %137, null
  br i1 %138, label %141, label %139

139:                                              ; preds = %124
  %140 = load ptr, ptr %13, align 8
  call void @xmlFreeNode(ptr noundef %140)
  br label %148

141:                                              ; preds = %124
  br label %142

142:                                              ; preds = %141, %123
  br label %143

143:                                              ; preds = %142
  %144 = load i32, ptr %15, align 4
  %145 = add i32 %144, 1
  store i32 %145, ptr %15, align 4
  br label %26

146:                                              ; preds = %26
  %147 = load ptr, ptr %12, align 8
  store ptr %147, ptr %6, align 8
  br label %150

148:                                              ; preds = %139, %121, %107
  %149 = load ptr, ptr %12, align 8
  call void @xmlFreeNode(ptr noundef %149)
  store ptr null, ptr %6, align 8
  br label %150

150:                                              ; preds = %148, %146, %24
  %151 = load ptr, ptr %6, align 8
  ret ptr %151
}