; Function Attrs: nounwind uwtable
define hidden ptr @dom_zvals_to_fragment(ptr noundef %0, ptr noundef %1, ptr nocapture noundef readonly %2, i32 noundef %3) local_unnamed_addr #0 {
  %5 = getelementptr inbounds i8, ptr %1, i64 8
  %6 = load i32, ptr %5, align 8
  switch i32 %6, label %7 [
    i32 9, label %dom_doc_from_context_node.exit
    i32 13, label %dom_doc_from_context_node.exit
  ]

7:                                                ; preds = %4
  %8 = getelementptr inbounds i8, ptr %1, i64 64
  %9 = load ptr, ptr %8, align 8
  br label %dom_doc_from_context_node.exit

dom_doc_from_context_node.exit:                   ; preds = %4, %4, %7
  %.0.i = phi ptr [ %9, %7 ], [ %1, %4 ], [ %1, %4 ]
  %10 = tail call ptr @xmlNewDocFragment(ptr noundef %.0.i) #3
  %.not = icmp eq ptr %10, null
  br i1 %.not, label %.loopexit54, label %.preheader

.preheader:                                       ; preds = %dom_doc_from_context_node.exit
  %.not59 = icmp eq i32 %3, 0
  br i1 %.not59, label %.loopexit54, label %.lr.ph

.lr.ph:                                           ; preds = %.preheader
  %11 = getelementptr inbounds i8, ptr %10, i64 32
  %wide.trip.count = zext i32 %3 to i64
  br label %12

12:                                               ; preds = %.lr.ph, %.loopexit
  %indvars.iv = phi i64 [ 0, %.lr.ph ], [ %indvars.iv.next, %.loopexit ]
  %13 = getelementptr inbounds %struct._zval_struct, ptr %2, i64 %indvars.iv
  %14 = getelementptr inbounds i8, ptr %13, i64 8
  %15 = load i8, ptr %14, align 8
  %16 = icmp eq i8 %15, 8
  %17 = load ptr, ptr %13, align 8
  br i1 %16, label %18, label %52

18:                                               ; preds = %12
  %19 = getelementptr inbounds i8, ptr %17, i64 -24
  %20 = tail call ptr @dom_object_get_node(ptr noundef nonnull %19) #3
  %21 = getelementptr inbounds i8, ptr %20, i64 40
  %22 = load ptr, ptr %21, align 8
  %.not48 = icmp eq ptr %22, null
  br i1 %.not48, label %24, label %23

23:                                               ; preds = %18
  tail call void @xmlUnlinkNode(ptr noundef nonnull %20) #3
  br label %24

24:                                               ; preds = %23, %18
  %25 = getelementptr inbounds i8, ptr %17, i64 -16
  store ptr %0, ptr %25, align 8
  tail call void @xmlSetTreeDoc(ptr noundef nonnull %20, ptr noundef %.0.i) #3
  %26 = getelementptr inbounds i8, ptr %20, i64 8
  %27 = load i32, ptr %26, align 8
  %28 = icmp eq i32 %27, 3
  br i1 %28, label %29, label %.thread

29:                                               ; preds = %24
  %30 = load ptr, ptr %11, align 8
  %.not49 = icmp eq ptr %30, null
  br i1 %.not49, label %.thread66, label %31

31:                                               ; preds = %29
  %32 = getelementptr inbounds i8, ptr %30, i64 8
  %33 = load i32, ptr %32, align 8
  %34 = icmp eq i32 %33, 3
  br i1 %34, label %35, label %.thread66

35:                                               ; preds = %31
  %36 = tail call ptr @xmlCopyNode(ptr noundef nonnull %20, i32 noundef 1) #3
  %.phi.trans.insert = getelementptr inbounds i8, ptr %36, i64 8
  %.pre = load i32, ptr %.phi.trans.insert, align 8
  br label %.thread

.thread:                                          ; preds = %24, %35
  %37 = phi i32 [ %.pre, %35 ], [ %27, %24 ]
  %.043 = phi ptr [ %36, %35 ], [ %20, %24 ]
  %38 = icmp eq i32 %37, 11
  br i1 %38, label %39, label %47

39:                                               ; preds = %.thread
  %40 = getelementptr inbounds i8, ptr %.043, i64 24
  %41 = load ptr, ptr %40, align 8
  br label %42

42:                                               ; preds = %43, %39
  %.1 = phi ptr [ %41, %39 ], [ %45, %43 ]
  %.not51 = icmp eq ptr %.1, null
  br i1 %.not51, label %.loopexit, label %43

43:                                               ; preds = %42
  %44 = getelementptr inbounds i8, ptr %.1, i64 48
  %45 = load ptr, ptr %44, align 8
  tail call void @xmlUnlinkNode(ptr noundef nonnull %.1) #3
  %46 = tail call ptr @xmlAddChild(ptr noundef nonnull %10, ptr noundef nonnull %.1) #3
  %.not52 = icmp eq ptr %46, null
  br i1 %.not52, label %.loopexit53, label %42

47:                                               ; preds = %.thread
  %48 = tail call ptr @xmlAddChild(ptr noundef nonnull %10, ptr noundef nonnull %.043) #3
  %.not50 = icmp eq ptr %48, null
  br i1 %.not50, label %50, label %.loopexit

.thread66:                                        ; preds = %29, %31
  %49 = tail call ptr @xmlAddChild(ptr noundef nonnull %10, ptr noundef nonnull %20) #3
  %.not5068 = icmp eq ptr %49, null
  br i1 %.not5068, label %.loopexit53, label %.loopexit

50:                                               ; preds = %47
  br i1 %28, label %51, label %.loopexit53

51:                                               ; preds = %50
  tail call void @xmlFreeNode(ptr noundef nonnull %.043) #3
  br label %.loopexit53

52:                                               ; preds = %12
  %53 = getelementptr inbounds i8, ptr %17, i64 24
  %54 = tail call ptr @xmlNewDocText(ptr noundef %.0.i, ptr noundef nonnull %53) #3
  %55 = tail call ptr @xmlAddChild(ptr noundef nonnull %10, ptr noundef %54) #3
  %.not47 = icmp eq ptr %55, null
  br i1 %.not47, label %56, label %.loopexit

56:                                               ; preds = %52
  tail call void @xmlFreeNode(ptr noundef %54) #3
  br label %.loopexit53

.loopexit:                                        ; preds = %42, %.thread66, %47, %52
  %indvars.iv.next = add nuw nsw i64 %indvars.iv, 1
  %exitcond.not = icmp eq i64 %indvars.iv.next, %wide.trip.count
  br i1 %exitcond.not, label %.loopexit54, label %12

.loopexit53:                                      ; preds = %.thread66, %43, %50, %51, %56
  tail call void @xmlFreeNode(ptr noundef nonnull %10) #3
  br label %.loopexit54

.loopexit54:                                      ; preds = %.loopexit, %.preheader, %dom_doc_from_context_node.exit, %.loopexit53
  %.0 = phi ptr [ null, %.loopexit53 ], [ null, %dom_doc_from_context_node.exit ], [ %10, %.preheader ], [ %10, %.loopexit ]
  ret ptr %.0
}